; Function Attrs: mustprogress nounwind uwtable
define void @_ZN4LIEF5MachO13ThreadCommandD2Ev(ptr noundef nonnull align 8 dereferenceable(96) %0) unnamed_addr #5 align 2 personality ptr @__gxx_personality_v0 {
  store ptr getelementptr inbounds ({ [9 x ptr] }, ptr @_ZTVN4LIEF5MachO13ThreadCommandE, i64 0, i32 0, i64 2), ptr %0, align 8
  %2 = getelementptr inbounds i8, ptr %0, i64 72
  %3 = load ptr, ptr %2, align 8
  %.not.i.i.i = icmp eq ptr %3, null
  br i1 %.not.i.i.i, label %_ZNSt6vectorIhSaIhEED2Ev.exit, label %4

4:                                                ; preds = %1
  tail call void @_ZdlPv(ptr noundef nonnull %3) #19
  br label %_ZNSt6vectorIhSaIhEED2Ev.exit

_ZNSt6vectorIhSaIhEED2Ev.exit:                    ; preds = %1, %4
  tail call void @_ZN4LIEF5MachO11LoadCommandD2Ev(ptr noundef nonnull align 8 dereferenceable(56) %0) #16
  ret void
}